target datalayout = "e-m:e-p270:32:32-p271:32:32-p272:64:64-i64:64-i128:128-f80:128-n8:16:32:64-S128"
target triple = "x86_64-pc-linux-gnu"

%"class.cv::Mat" = type { i32, i32, i32, i32, ptr, ptr, ptr, ptr, ptr, ptr, %"struct.cv::MatSize", %"struct.cv::MatStep" }
%"struct.cv::MatSize" = type { ptr }
%"struct.cv::MatStep" = type { ptr, [2 x i64] }
%"class.cv::_InputArray" = type { i32, ptr, %"class.cv::Size_.14" }
%"class.cv::Size_.14" = type { i32, i32 }
%"class.cv::_OutputArray" = type { %"class.cv::_InputArray" }
%"class.cv::_InputOutputArray" = type { %"class.cv::_OutputArray" }
%"class.cv::TermCriteria" = type { i32, i32, double }

; Function Attrs: inlinehint mustprogress uwtable
define linkonce_odr hidden void @_ZN2cv12_OutputArrayC2Ev(ptr noundef nonnull align 8 dereferenceable(24) %0) unnamed_addr #10 comdat align 2 {
  %2 = alloca ptr, align 8
  store ptr %0, ptr %2, align 8, !tbaa !61
  %3 = load ptr, ptr %2, align 8
  call void @_ZN2cv11_InputArrayC2Ev(ptr noundef nonnull align 8 dereferenceable(24) %3)
  call void @_ZN2cv11_InputArray4initEiPKv(ptr noundef nonnull align 8 dereferenceable(24) %3, i32 noundef 33554432, ptr noundef null)
  ret void
}

; Function Attrs: inlinehint mustprogress uwtable
define linkonce_odr hidden void @_ZN2cv11_InputArrayC2Ev(ptr noundef nonnull align 8 dereferenceable(24) %0) unnamed_addr #10 comdat align 2 {
  %2 = alloca ptr, align 8
  store ptr %0, ptr %2, align 8, !tbaa !59
  %3 = load ptr, ptr %2, align 8
  %4 = getelementptr inbounds nuw %"class.cv::_InputArray", ptr %3, i32 0, i32 2
  call void @_ZN2cv5Size_IiEC2Ev(ptr noundef nonnull align 4 dereferenceable(8) %4)
  call void @_ZN2cv11_InputArray4initEiPKv(ptr noundef nonnull align 8 dereferenceable(24) %3, i32 noundef 0, ptr noundef null)
  ret void
}

; Function Attrs: inlinehint mustprogress nounwind uwtable
define linkonce_odr hidden void @_ZN2cv11_InputArray4initEiPKv(ptr noundef nonnull align 8 dereferenceable(24) %0, i32 noundef %1, ptr noundef %2) #6 comdat align 2 {
  %4 = alloca ptr, align 8
  %5 = alloca i32, align 4
  %6 = alloca ptr, align 8
  store ptr %0, ptr %4, align 8, !tbaa !59
  store i32 %1, ptr %5, align 4, !tbaa !77
  store ptr %2, ptr %6, align 8, !tbaa !248
  %7 = load ptr, ptr %4, align 8
  %8 = load i32, ptr %5, align 4, !tbaa !77
  %9 = getelementptr inbounds nuw %"class.cv::_InputArray", ptr %7, i32 0, i32 0
  store i32 %8, ptr %9, align 8, !tbaa !249
  %10 = load ptr, ptr %6, align 8, !tbaa !248
  %11 = getelementptr inbounds nuw %"class.cv::_InputArray", ptr %7, i32 0, i32 1
  store ptr %10, ptr %11, align 8, !tbaa !78
  ret void
}

; Function Attrs: inlinehint mustprogress nounwind uwtable
define linkonce_odr hidden void @_ZN2cv5Size_IiEC2Ev(ptr noundef nonnull align 4 dereferenceable(8) %0) unnamed_addr #6 comdat align 2 {
  %2 = alloca ptr, align 8
  store ptr %0, ptr %2, align 8, !tbaa !132
  %3 = load ptr, ptr %2, align 8
  %4 = getelementptr inbounds nuw %"class.cv::Size_.14", ptr %3, i32 0, i32 0
  store i32 0, ptr %4, align 4, !tbaa !134
  %5 = getelementptr inbounds nuw %"class.cv::Size_.14", ptr %3, i32 0, i32 1
  store i32 0, ptr %5, align 4, !tbaa !135
  ret void
}

; Function Attrs: inlinehint mustprogress nounwind uwtable
define linkonce_odr hidden void @_ZN2cv12TermCriteriaC2Eiid(ptr noundef nonnull align 8 dereferenceable(16) %0, i32 noundef %1, i32 noundef %2, double noundef %3) unnamed_addr #6 comdat align 2 {
  %5 = alloca ptr, align 8
  %6 = alloca i32, align 4
  %7 = alloca i32, align 4
  %8 = alloca double, align 8
  store ptr %0, ptr %5, align 8, !tbaa !136
  store i32 %1, ptr %6, align 4, !tbaa !77
  store i32 %2, ptr %7, align 4, !tbaa !77
  store double %3, ptr %8, align 8, !tbaa !110
  %9 = load ptr, ptr %5, align 8
  %10 = getelementptr inbounds nuw %"class.cv::TermCriteria", ptr %9, i32 0, i32 0
  %11 = load i32, ptr %6, align 4, !tbaa !77
  store i32 %11, ptr %10, align 8, !tbaa !138
  %12 = getelementptr inbounds nuw %"class.cv::TermCriteria", ptr %9, i32 0, i32 1
  %13 = load i32, ptr %7, align 4, !tbaa !77
  store i32 %13, ptr %12, align 4, !tbaa !140
  %14 = getelementptr inbounds nuw %"class.cv::TermCriteria", ptr %9, i32 0, i32 2
  %15 = load double, ptr %8, align 8, !tbaa !110
  store double %15, ptr %14, align 8, !tbaa !141
  ret void
}

; Function Attrs: inlinehint mustprogress nounwind uwtable
define linkonce_odr hidden void @_ZN2cv5Size_IiEC2Eii(ptr noundef nonnull align 4 dereferenceable(8) %0, i32 noundef %1, i32 noundef %2) unnamed_addr #6 comdat align 2 {
  %4 = alloca ptr, align 8
  %5 = alloca i32, align 4
  %6 = alloca i32, align 4
  store ptr %0, ptr %4, align 8, !tbaa !132
  store i32 %1, ptr %5, align 4, !tbaa !77
  store i32 %2, ptr %6, align 4, !tbaa !77
  %7 = load ptr, ptr %4, align 8
  %8 = getelementptr inbounds nuw %"class.cv::Size_.14", ptr %7, i32 0, i32 0
  %9 = load i32, ptr %5, align 4, !tbaa !77
  store i32 %9, ptr %8, align 4, !tbaa !134
  %10 = getelementptr inbounds nuw %"class.cv::Size_.14", ptr %7, i32 0, i32 1
  %11 = load i32, ptr %6, align 4, !tbaa !77
  store i32 %11, ptr %10, align 4, !tbaa !135
  ret void
}

; Function Attrs: inlinehint mustprogress uwtable
define linkonce_odr hidden void @_ZN2cv17_InputOutputArrayC2INS_6Point_IfEEEERSt6vectorIT_SaIS5_EE(ptr noundef nonnull align 8 dereferenceable(24) %0, ptr noundef nonnull align 8 dereferenceable(24) %1) unnamed_addr #10 comdat align 2 {
  %3 = alloca ptr, align 8
  %4 = alloca ptr, align 8
  store ptr %0, ptr %3, align 8, !tbaa !116
  store ptr %1, ptr %4, align 8, !tbaa !49
  %5 = load ptr, ptr %3, align 8
  call void @_ZN2cv12_OutputArrayC2Ev(ptr noundef nonnull align 8 dereferenceable(24) %5)
  %6 = load ptr, ptr %4, align 8, !tbaa !49
  call void @_ZN2cv11_InputArray4initEiPKv(ptr noundef nonnull align 8 dereferenceable(24) %5, i32 noundef -2096955379, ptr noundef %6)
  ret void
}

; Function Attrs: inlinehint mustprogress nounwind uwtable
define linkonce_odr hidden void @_ZN2cv11_InputArrayD2Ev(ptr noundef nonnull align 8 dereferenceable(24) %0) unnamed_addr #6 comdat align 2 {
  %2 = alloca ptr, align 8
  store ptr %0, ptr %2, align 8, !tbaa !59
  ret void
}

; Function Attrs: inlinehint mustprogress uwtable
define linkonce_odr hidden void @_ZN2cv12_OutputArrayC2ERNS_3MatE(ptr noundef nonnull align 8 dereferenceable(24) %0, ptr noundef nonnull align 8 dereferenceable(96) %1) unnamed_addr #10 comdat align 2 personality ptr @__gxx_personality_v0 {
  %3 = alloca ptr, align 8
  %4 = alloca ptr, align 8
  %5 = alloca ptr, align 8
  %6 = alloca i32, align 4
  store ptr %0, ptr %3, align 8, !tbaa !61
  store ptr %1, ptr %4, align 8, !tbaa !81
  %7 = load ptr, ptr %3, align 8
  call void @_ZN2cv11_InputArrayC2Ev(ptr noundef nonnull align 8 dereferenceable(24) %7)
  %8 = load ptr, ptr %4, align 8, !tbaa !81
  invoke void @_ZN2cv11_InputArray4initEiPKv(ptr noundef nonnull align 8 dereferenceable(24) %7, i32 noundef 33619968, ptr noundef %8)
          to label %9 unwind label %10

9:                                                ; preds = %2
  ret void

10:                                               ; preds = %2
  %11 = landingpad { ptr, i32 }
          cleanup
  %12 = extractvalue { ptr, i32 } %11, 0
  store ptr %12, ptr %5, align 8
  %13 = extractvalue { ptr, i32 } %11, 1
  store i32 %13, ptr %6, align 4
  call void @_ZN2cv11_InputArrayD2Ev(ptr noundef nonnull align 8 dereferenceable(24) %7) #3
  br label %14

14:                                               ; preds = %10
  %15 = load ptr, ptr %5, align 8
  %16 = load i32, ptr %6, align 4
  %17 = insertvalue { ptr, i32 } poison, ptr %15, 0
  %18 = insertvalue { ptr, i32 } %17, i32 %16, 1
  resume { ptr, i32 } %18
}

; Function Attrs: inlinehint mustprogress uwtable
define linkonce_odr hidden void @_ZN2cv11_InputArrayC2ERKNS_3MatE(ptr noundef nonnull align 8 dereferenceable(24) %0, ptr noundef nonnull align 8 dereferenceable(96) %1) unnamed_addr #10 comdat align 2 {
  %3 = alloca ptr, align 8
  %4 = alloca ptr, align 8
  store ptr %0, ptr %3, align 8, !tbaa !59
  store ptr %1, ptr %4, align 8, !tbaa !81
  %5 = load ptr, ptr %3, align 8
  %6 = getelementptr inbounds nuw %"class.cv::_InputArray", ptr %5, i32 0, i32 2
  call void @_ZN2cv5Size_IiEC2Ev(ptr noundef nonnull align 4 dereferenceable(8) %6)
  %7 = load ptr, ptr %4, align 8, !tbaa !81
  call void @_ZN2cv11_InputArray4initEiPKv(ptr noundef nonnull align 8 dereferenceable(24) %5, i32 noundef 16842752, ptr noundef %7)
  ret void
}

; Function Attrs: mustprogress uwtable
define void @_ZN2cv6ccalib13CustomPattern15refinePointsPosERKNS_3MatERSt6vectorINS_6Point_IfEESaIS7_EE(ptr noundef nonnull align 8 dereferenceable(336) %0, ptr noundef nonnull align 8 dereferenceable(96) %1, ptr noundef nonnull align 8 dereferenceable(24) %2) #4 align 2 personality ptr @__gxx_personality_v0 {
  %4 = alloca ptr, align 8
  %5 = alloca ptr, align 8
  %6 = alloca ptr, align 8
  %7 = alloca %"class.cv::Mat", align 8
  %8 = alloca %"class.cv::_InputArray", align 8
  %9 = alloca ptr, align 8
  %10 = alloca i32, align 4
  %11 = alloca %"class.cv::_OutputArray", align 8
  %12 = alloca %"class.cv::_InputArray", align 8
  %13 = alloca %"class.cv::_InputOutputArray", align 8
  %14 = alloca %"class.cv::Size_.14", align 4
  %15 = alloca %"class.cv::Size_.14", align 4
  %16 = alloca %"class.cv::TermCriteria", align 8
  store ptr %0, ptr %4, align 8, !tbaa !3
  store ptr %1, ptr %5, align 8, !tbaa !81
  store ptr %2, ptr %6, align 8, !tbaa !49
  call void @llvm.lifetime.start.p0(i64 96, ptr %7) #3
  call void @_ZN2cv3MatC1Ev(ptr noundef nonnull align 8 dereferenceable(96) %7) #3
  call void @llvm.lifetime.start.p0(i64 24, ptr %8) #3
  %17 = load ptr, ptr %5, align 8, !tbaa !81
  invoke void @_ZN2cv11_InputArrayC2ERKNS_3MatE(ptr noundef nonnull align 8 dereferenceable(24) %8, ptr noundef nonnull align 8 dereferenceable(96) %17)
          to label %18 unwind label %34

18:                                               ; preds = %3
  call void @llvm.lifetime.start.p0(i64 24, ptr %11) #3
  invoke void @_ZN2cv12_OutputArrayC2ERNS_3MatE(ptr noundef nonnull align 8 dereferenceable(24) %11, ptr noundef nonnull align 8 dereferenceable(96) %7)
          to label %19 unwind label %38

19:                                               ; preds = %18
  invoke void @_ZN2cv8cvtColorERKNS_11_InputArrayERKNS_12_OutputArrayEiiNS_13AlgorithmHintE(ptr noundef nonnull align 8 dereferenceable(24) %8, ptr noundef nonnull align 8 dereferenceable(24) %11, i32 noundef 7, i32 noundef 0, i32 noundef 0)
          to label %20 unwind label %42

20:                                               ; preds = %19
  call void @_ZN2cv11_InputArrayD2Ev(ptr noundef nonnull align 8 dereferenceable(24) %11) #3
  call void @llvm.lifetime.end.p0(i64 24, ptr %11) #3
  call void @_ZN2cv11_InputArrayD2Ev(ptr noundef nonnull align 8 dereferenceable(24) %8) #3
  call void @llvm.lifetime.end.p0(i64 24, ptr %8) #3
  call void @llvm.lifetime.start.p0(i64 24, ptr %12) #3
  invoke void @_ZN2cv11_InputArrayC2ERKNS_3MatE(ptr noundef nonnull align 8 dereferenceable(24) %12, ptr noundef nonnull align 8 dereferenceable(96) %7)
          to label %21 unwind label %48

21:                                               ; preds = %20
  call void @llvm.lifetime.start.p0(i64 24, ptr %13) #3
  %22 = load ptr, ptr %6, align 8, !tbaa !49
  invoke void @_ZN2cv17_InputOutputArrayC2INS_6Point_IfEEEERSt6vectorIT_SaIS5_EE(ptr noundef nonnull align 8 dereferenceable(24) %13, ptr noundef nonnull align 8 dereferenceable(24) %22)
          to label %23 unwind label %52

23:                                               ; preds = %21
  invoke void @_ZN2cv5Size_IiEC2Eii(ptr noundef nonnull align 4 dereferenceable(8) %14, i32 noundef 10, i32 noundef 10)
          to label %24 unwind label %56

24:                                               ; preds = %23
  invoke void @_ZN2cv5Size_IiEC2Eii(ptr noundef nonnull align 4 dereferenceable(8) %15, i32 noundef -1, i32 noundef -1)
          to label %25 unwind label %56

25:                                               ; preds = %24
  invoke void @_ZN2cv12TermCriteriaC2Eiid(ptr noundef nonnull align 8 dereferenceable(16) %16, i32 noundef 3, i32 noundef 30, double noundef 1.000000e-01)
          to label %26 unwind label %56

26:                                               ; preds = %25
  %27 = load i64, ptr %14, align 4
  %28 = load i64, ptr %15, align 4
  %29 = getelementptr inbounds nuw { i64, double }, ptr %16, i32 0, i32 0
  %30 = load i64, ptr %29, align 8
  %31 = getelementptr inbounds nuw { i64, double }, ptr %16, i32 0, i32 1
  %32 = load double, ptr %31, align 8
  invoke void @_ZN2cv12cornerSubPixERKNS_11_InputArrayERKNS_17_InputOutputArrayENS_5Size_IiEES7_NS_12TermCriteriaE(ptr noundef nonnull align 8 dereferenceable(24) %12, ptr noundef nonnull align 8 dereferenceable(24) %13, i64 %27, i64 %28, i64 %30, double %32)
          to label %33 unwind label %56

33:                                               ; preds = %26
  call void @_ZN2cv11_InputArrayD2Ev(ptr noundef nonnull align 8 dereferenceable(24) %13) #3
  call void @llvm.lifetime.end.p0(i64 24, ptr %13) #3
  call void @_ZN2cv11_InputArrayD2Ev(ptr noundef nonnull align 8 dereferenceable(24) %12) #3
  call void @llvm.lifetime.end.p0(i64 24, ptr %12) #3
  call void @_ZN2cv3MatD1Ev(ptr noundef nonnull align 8 dereferenceable(96) %7) #3
  call void @llvm.lifetime.end.p0(i64 96, ptr %7) #3
  ret void

34:                                               ; preds = %3
  %35 = landingpad { ptr, i32 }
          cleanup
  %36 = extractvalue { ptr, i32 } %35, 0
  store ptr %36, ptr %9, align 8
  %37 = extractvalue { ptr, i32 } %35, 1
  store i32 %37, ptr %10, align 4
  br label %47

38:                                               ; preds = %18
  %39 = landingpad { ptr, i32 }
          cleanup
  %40 = extractvalue { ptr, i32 } %39, 0
  store ptr %40, ptr %9, align 8
  %41 = extractvalue { ptr, i32 } %39, 1
  store i32 %41, ptr %10, align 4
  br label %46

42:                                               ; preds = %19
  %43 = landingpad { ptr, i32 }
          cleanup
  %44 = extractvalue { ptr, i32 } %43, 0
  store ptr %44, ptr %9, align 8
  %45 = extractvalue { ptr, i32 } %43, 1
  store i32 %45, ptr %10, align 4
  call void @_ZN2cv11_InputArrayD2Ev(ptr noundef nonnull align 8 dereferenceable(24) %11) #3
  br label %46

46:                                               ; preds = %42, %38
  call void @llvm.lifetime.end.p0(i64 24, ptr %11) #3
  call void @_ZN2cv11_InputArrayD2Ev(ptr noundef nonnull align 8 dereferenceable(24) %8) #3
  br label %47

47:                                               ; preds = %46, %34
  call void @llvm.lifetime.end.p0(i64 24, ptr %8) #3
  br label %62

48:                                               ; preds = %20
  %49 = landingpad { ptr, i32 }
          cleanup
  %50 = extractvalue { ptr, i32 } %49, 0
  store ptr %50, ptr %9, align 8
  %51 = extractvalue { ptr, i32 } %49, 1
  store i32 %51, ptr %10, align 4
  br label %61

52:                                               ; preds = %21
  %53 = landingpad { ptr, i32 }
          cleanup
  %54 = extractvalue { ptr, i32 } %53, 0
  store ptr %54, ptr %9, align 8
  %55 = extractvalue { ptr, i32 } %53, 1
  store i32 %55, ptr %10, align 4
  br label %60

56:                                               ; preds = %26, %25, %24, %23
  %57 = landingpad { ptr, i32 }
          cleanup
  %58 = extractvalue { ptr, i32 } %57, 0
  store ptr %58, ptr %9, align 8
  %59 = extractvalue { ptr, i32 } %57, 1
  store i32 %59, ptr %10, align 4
  call void @_ZN2cv11_InputArrayD2Ev(ptr noundef nonnull align 8 dereferenceable(24) %13) #3
  br label %60

60:                                               ; preds = %56, %52
  call void @llvm.lifetime.end.p0(i64 24, ptr %13) #3
  call void @_ZN2cv11_InputArrayD2Ev(ptr noundef nonnull align 8 dereferenceable(24) %12) #3
  br label %61

61:                                               ; preds = %60, %48
  call void @llvm.lifetime.end.p0(i64 24, ptr %12) #3
  br label %62

62:                                               ; preds = %61, %47
  call void @_ZN2cv3MatD1Ev(ptr noundef nonnull align 8 dereferenceable(96) %7) #3
  call void @llvm.lifetime.end.p0(i64 96, ptr %7) #3
  br label %63

63:                                               ; preds = %62
  %64 = load ptr, ptr %9, align 8
  %65 = load i32, ptr %10, align 4
  %66 = insertvalue { ptr, i32 } poison, ptr %64, 0
  %67 = insertvalue { ptr, i32 } %66, i32 %65, 1
  resume { ptr, i32 } %67
}