; Function Attrs: mustprogress uwtable
define void @_ZN2cv6ccalib13CustomPattern15refinePointsPosERKNS_3MatERSt6vectorINS_6Point_IfEESaIS7_EE(ptr nonnull readnone align 8 captures(none) %0, ptr noundef nonnull align 8 dereferenceable(96) %1, ptr noundef nonnull align 8 dereferenceable(24) %2) local_unnamed_addr #3 align 2 personality ptr @__gxx_personality_v0 {
  %4 = alloca %"class.cv::Mat", align 8
  %5 = alloca %"class.cv::_InputArray", align 8
  %6 = alloca %"class.cv::_OutputArray", align 8
  %7 = alloca %"class.cv::_InputArray", align 8
  %8 = alloca %"class.cv::_InputOutputArray", align 8
  call void @llvm.lifetime.start.p0(i64 96, ptr nonnull %4) #24
  call void @_ZN2cv3MatC1Ev(ptr noundef nonnull align 8 dereferenceable(96) %4) #24
  call void @llvm.lifetime.start.p0(i64 24, ptr nonnull %5) #24
  %9 = getelementptr inbounds nuw i8, ptr %5, i64 16
  store i32 0, ptr %9, align 8, !tbaa !77
  %10 = getelementptr inbounds nuw i8, ptr %5, i64 20
  store i32 0, ptr %10, align 4, !tbaa !78
  store i32 16842752, ptr %5, align 8, !tbaa !58
  %11 = getelementptr inbounds nuw i8, ptr %5, i64 8
  store ptr %1, ptr %11, align 8, !tbaa !55
  call void @llvm.lifetime.start.p0(i64 24, ptr nonnull %6) #24
  %12 = getelementptr inbounds nuw i8, ptr %6, i64 8
  %13 = getelementptr inbounds nuw i8, ptr %6, i64 16
  store i64 0, ptr %13, align 8
  store i32 33619968, ptr %6, align 8, !tbaa !58
  store ptr %4, ptr %12, align 8, !tbaa !55
  invoke void @_ZN2cv8cvtColorERKNS_11_InputArrayERKNS_12_OutputArrayEiiNS_13AlgorithmHintE(ptr noundef nonnull align 8 dereferenceable(24) %5, ptr noundef nonnull align 8 dereferenceable(24) %6, i32 noundef 7, i32 noundef 0, i32 noundef 0)
          to label %14 unwind label %21

14:                                               ; preds = %3
  call void @llvm.lifetime.end.p0(i64 24, ptr nonnull %6) #24
  call void @llvm.lifetime.end.p0(i64 24, ptr nonnull %5) #24
  call void @llvm.lifetime.start.p0(i64 24, ptr nonnull %7) #24
  %15 = getelementptr inbounds nuw i8, ptr %7, i64 16
  store i32 0, ptr %15, align 8, !tbaa !77
  %16 = getelementptr inbounds nuw i8, ptr %7, i64 20
  store i32 0, ptr %16, align 4, !tbaa !78
  store i32 16842752, ptr %7, align 8, !tbaa !58
  %17 = getelementptr inbounds nuw i8, ptr %7, i64 8
  store ptr %4, ptr %17, align 8, !tbaa !55
  call void @llvm.lifetime.start.p0(i64 24, ptr nonnull %8) #24
  %18 = getelementptr inbounds nuw i8, ptr %8, i64 8
  %19 = getelementptr inbounds nuw i8, ptr %8, i64 16
  store i64 0, ptr %19, align 8
  store i32 -2096955379, ptr %8, align 8, !tbaa !58
  store ptr %2, ptr %18, align 8, !tbaa !55
  invoke void @_ZN2cv12cornerSubPixERKNS_11_InputArrayERKNS_17_InputOutputArrayENS_5Size_IiEES7_NS_12TermCriteriaE(ptr noundef nonnull align 8 dereferenceable(24) %7, ptr noundef nonnull align 8 dereferenceable(24) %8, i64 42949672970, i64 -1, i64 128849018883, double 1.000000e-01)
          to label %20 unwind label %23

20:                                               ; preds = %14
  call void @llvm.lifetime.end.p0(i64 24, ptr nonnull %8) #24
  call void @llvm.lifetime.end.p0(i64 24, ptr nonnull %7) #24
  call void @_ZN2cv3MatD1Ev(ptr noundef nonnull align 8 dereferenceable(96) %4) #24
  call void @llvm.lifetime.end.p0(i64 96, ptr nonnull %4) #24
  ret void

21:                                               ; preds = %3
  %22 = landingpad { ptr, i32 }
          cleanup
  call void @llvm.lifetime.end.p0(i64 24, ptr nonnull %6) #24
  call void @llvm.lifetime.end.p0(i64 24, ptr nonnull %5) #24
  br label %25

23:                                               ; preds = %14
  %24 = landingpad { ptr, i32 }
          cleanup
  call void @llvm.lifetime.end.p0(i64 24, ptr nonnull %8) #24
  call void @llvm.lifetime.end.p0(i64 24, ptr nonnull %7) #24
  br label %25

25:                                               ; preds = %23, %21
  %.pn10.pn.pn = phi { ptr, i32 } [ %24, %23 ], [ %22, %21 ]
  call void @_ZN2cv3MatD1Ev(ptr noundef nonnull align 8 dereferenceable(96) %4) #24
  call void @llvm.lifetime.end.p0(i64 96, ptr nonnull %4) #24
  resume { ptr, i32 } %.pn10.pn.pn
}